; Function Attrs: mustprogress nofree norecurse nosync nounwind willreturn memory(read, inaccessiblemem: none) uwtable
define hidden noundef i32 @_ZNK17asserted_formulas23get_formulas_last_levelEv(ptr noundef nonnull readonly align 8 captures(none) dereferenceable(7236) %0) local_unnamed_addr #10 align 2 {
  %2 = getelementptr inbounds nuw i8, ptr %0, i64 2208
  %3 = load ptr, ptr %2, align 8, !tbaa !350
  %4 = icmp eq ptr %3, null
  br i1 %4, label %_ZNK6vectorIN17asserted_formulas5scopeELb0EjE5emptyEv.exit.thread, label %_ZNK6vectorIN17asserted_formulas5scopeELb0EjE5emptyEv.exit

_ZNK6vectorIN17asserted_formulas5scopeELb0EjE5emptyEv.exit: ; preds = %1
  %5 = getelementptr inbounds i8, ptr %3, i64 -4
  %6 = load i32, ptr %5, align 4, !tbaa !385
  %7 = icmp eq i32 %6, 0
  br i1 %7, label %_ZNK6vectorIN17asserted_formulas5scopeELb0EjE5emptyEv.exit.thread, label %_ZNK6vectorIN17asserted_formulas5scopeELb0EjE4backEv.exit

_ZNK6vectorIN17asserted_formulas5scopeELb0EjE4backEv.exit: ; preds = %_ZNK6vectorIN17asserted_formulas5scopeELb0EjE5emptyEv.exit
  %8 = add i32 %6, -1
  %9 = zext i32 %8 to i64
  %10 = getelementptr inbounds nuw %"struct.asserted_formulas::scope", ptr %3, i64 %9
  %11 = load i32, ptr %10, align 4, !tbaa !470
  br label %_ZNK6vectorIN17asserted_formulas5scopeELb0EjE5emptyEv.exit.thread

_ZNK6vectorIN17asserted_formulas5scopeELb0EjE5emptyEv.exit.thread: ; preds = %1, %_ZNK6vectorIN17asserted_formulas5scopeELb0EjE5emptyEv.exit, %_ZNK6vectorIN17asserted_formulas5scopeELb0EjE4backEv.exit
  %.0 = phi i32 [ %11, %_ZNK6vectorIN17asserted_formulas5scopeELb0EjE4backEv.exit ], [ 0, %_ZNK6vectorIN17asserted_formulas5scopeELb0EjE5emptyEv.exit ], [ 0, %1 ]
  ret i32 %.0
}